; Function Attrs: nounwind uwtable
define void @Pdr_InvPrint(ptr noundef readonly captures(none) %0, i32 noundef %1) local_unnamed_addr #0 {
  %3 = getelementptr i8, ptr %0, i64 8
  %.val12 = load ptr, ptr %3, align 8
  %4 = load i32, ptr %.val12, align 4
  %5 = getelementptr i8, ptr %0, i64 4
  %.val = load i32, ptr %5, align 4
  %reass.sub = sub i32 %.val, %4
  %6 = add i32 %reass.sub, -2
  %7 = tail call i32 @Pdr_InvUsedFlopNum(ptr noundef %0)
  %.val13 = load i32, ptr %5, align 4
  %.val14 = load ptr, ptr %3, align 8
  %8 = sext i32 %.val13 to i64
  %9 = getelementptr i32, ptr %.val14, i64 %8
  %10 = getelementptr i8, ptr %9, i64 -4
  %11 = load i32, ptr %10, align 4
  tail call void (i32, ptr, ...) @Abc_Print(i32 poison, ptr noundef nonnull @.str.47, i32 noundef %4, i32 noundef %6, i32 noundef %7, i32 noundef %11)
  %.not = icmp eq i32 %1, 0
  br i1 %.not, label %48, label %12

12:                                               ; preds = %2
  %.val17.i = load ptr, ptr %3, align 8
  %.val18.i = load i32, ptr %5, align 4
  %13 = sext i32 %.val18.i to i64
  %14 = getelementptr i32, ptr %.val17.i, i64 %13
  %15 = getelementptr i8, ptr %14, i64 -4
  %16 = load i32, ptr %15, align 4
  %17 = tail call noalias dereferenceable_or_null(16) ptr @malloc(i64 noundef 16) #20
  %18 = add i32 %16, -1
  %or.cond.i.i.i = icmp ult i32 %18, 15
  %spec.store.select.i.i.i = select i1 %or.cond.i.i.i, i32 16, i32 %16
  %19 = getelementptr inbounds nuw i8, ptr %17, i64 4
  store i32 %spec.store.select.i.i.i, ptr %17, align 8
  %.not.i.i.i = icmp eq i32 %spec.store.select.i.i.i, 0
  br i1 %.not.i.i.i, label %Vec_IntAlloc.exit.thread.i.i, label %Vec_IntAlloc.exit.i.i

Vec_IntAlloc.exit.thread.i.i:                     ; preds = %12
  %20 = getelementptr inbounds nuw i8, ptr %17, i64 8
  store ptr null, ptr %20, align 8
  store i32 %16, ptr %19, align 4
  br label %Vec_IntStart.exit.i

Vec_IntAlloc.exit.i.i:                            ; preds = %12
  %21 = sext i32 %spec.store.select.i.i.i to i64
  %22 = shl nsw i64 %21, 2
  %23 = tail call noalias ptr @malloc(i64 noundef %22) #20
  %24 = getelementptr inbounds nuw i8, ptr %17, i64 8
  store ptr %23, ptr %24, align 8
  store i32 %16, ptr %19, align 4
  %.not.i.i = icmp eq ptr %23, null
  br i1 %.not.i.i, label %Vec_IntStart.exit.i, label %25

25:                                               ; preds = %Vec_IntAlloc.exit.i.i
  %26 = sext i32 %16 to i64
  %27 = shl nsw i64 %26, 2
  tail call void @llvm.memset.p0.i64(ptr nonnull align 4 %23, i8 0, i64 %27, i1 false)
  br label %Vec_IntStart.exit.i

Vec_IntStart.exit.i:                              ; preds = %25, %Vec_IntAlloc.exit.i.i, %Vec_IntAlloc.exit.thread.i.i
  %28 = phi ptr [ null, %Vec_IntAlloc.exit.thread.i.i ], [ null, %Vec_IntAlloc.exit.i.i ], [ %23, %25 ]
  %29 = load i32, ptr %.val17.i, align 4
  %30 = icmp sgt i32 %29, 0
  br i1 %30, label %.preheader.i, label %Pdr_InvCounts.exit

.preheader.i:                                     ; preds = %Vec_IntStart.exit.i, %._crit_edge.i
  %.val17.pn.i = phi ptr [ %43, %._crit_edge.i ], [ %.val17.i, %Vec_IntStart.exit.i ]
  %.022.i = phi i32 [ %42, %._crit_edge.i ], [ 0, %Vec_IntStart.exit.i ]
  %.01523.i = getelementptr i8, ptr %.val17.pn.i, i64 4
  %31 = load i32, ptr %.01523.i, align 4
  %32 = icmp sgt i32 %31, 0
  br i1 %32, label %.lr.ph.i, label %.preheader.._crit_edge_crit_edge.i

.preheader.._crit_edge_crit_edge.i:               ; preds = %.preheader.i
  %.pre.i = sext i32 %31 to i64
  br label %._crit_edge.i

.lr.ph.i:                                         ; preds = %.preheader.i
  %33 = zext nneg i32 %31 to i64
  br label %34

34:                                               ; preds = %34, %.lr.ph.i
  %indvars.iv.i = phi i64 [ 0, %.lr.ph.i ], [ %indvars.iv.next.i, %34 ]
  %indvars.iv.next.i = add nuw nsw i64 %indvars.iv.i, 1
  %35 = getelementptr inbounds nuw i32, ptr %.01523.i, i64 %indvars.iv.next.i
  %36 = load i32, ptr %35, align 4
  %37 = ashr i32 %36, 1
  %38 = sext i32 %37 to i64
  %39 = getelementptr inbounds i32, ptr %28, i64 %38
  %40 = load i32, ptr %39, align 4
  %41 = add nsw i32 %40, 1
  store i32 %41, ptr %39, align 4
  %exitcond.not = icmp eq i64 %indvars.iv.next.i, %33
  br i1 %exitcond.not, label %._crit_edge.i, label %34, !llvm.loop !36

._crit_edge.i:                                    ; preds = %34, %.preheader.._crit_edge_crit_edge.i
  %.pre-phi.i = phi i64 [ %.pre.i, %.preheader.._crit_edge_crit_edge.i ], [ %33, %34 ]
  %42 = add nuw nsw i32 %.022.i, 1
  %43 = getelementptr i32, ptr %.01523.i, i64 %.pre-phi.i
  %exitcond17.not = icmp eq i32 %42, %29
  br i1 %exitcond17.not, label %Pdr_InvCounts.exit, label %.preheader.i, !llvm.loop !37

Pdr_InvCounts.exit:                               ; preds = %._crit_edge.i, %Vec_IntStart.exit.i
  %44 = tail call ptr @Pdr_InvPrintStr(ptr noundef %0, ptr noundef nonnull %17)
  %45 = getelementptr i8, ptr %44, i64 8
  %.val15 = load ptr, ptr %45, align 8
  tail call void (i32, ptr, ...) @Abc_Print(i32 poison, ptr noundef nonnull @.str.17, ptr noundef %.val15)
  %.not.i = icmp eq ptr %28, null
  br i1 %.not.i, label %Vec_IntFree.exit, label %46

46:                                               ; preds = %Pdr_InvCounts.exit
  tail call void @free(ptr noundef nonnull %28) #18
  br label %Vec_IntFree.exit

Vec_IntFree.exit:                                 ; preds = %Pdr_InvCounts.exit, %46
  tail call void @free(ptr noundef nonnull %17) #18
  %.not.i16 = icmp eq ptr %.val15, null
  br i1 %.not.i16, label %Vec_StrFree.exit, label %47

47:                                               ; preds = %Vec_IntFree.exit
  tail call void @free(ptr noundef nonnull %.val15) #18
  br label %Vec_StrFree.exit

Vec_StrFree.exit:                                 ; preds = %Vec_IntFree.exit, %47
  tail call void @free(ptr noundef nonnull %44) #18
  br label %48

48:                                               ; preds = %Vec_StrFree.exit, %2
  ret void
}